target datalayout = "e-m:e-p270:32:32-p271:32:32-p272:64:64-i64:64-i128:128-f80:128-n8:16:32:64-S128"
target triple = "x86_64-pc-linux-gnu"

@.str.36 = private unnamed_addr constant [18 x i8] c"frame_sync_byte_0\00", align 1
@.str.37 = private unnamed_addr constant [18 x i8] c"frame_sync_byte_1\00", align 1
@.str.38 = private unnamed_addr constant [18 x i8] c"frame_sync_byte_2\00", align 1

; Function Attrs: nounwind uwtable
define internal i32 @cbs_vp9_read_frame_sync_code(ptr noundef %0, ptr noundef %1, ptr noundef %2) #0 {
  %4 = alloca i32, align 4
  %5 = alloca ptr, align 8
  %6 = alloca ptr, align 8
  %7 = alloca ptr, align 8
  %8 = alloca i32, align 4
  %9 = alloca i32, align 4
  %10 = alloca i32, align 4
  %11 = alloca i32, align 4
  %12 = alloca i32, align 4
  store ptr %0, ptr %5, align 8, !tbaa !4
  store ptr %1, ptr %6, align 8, !tbaa !62
  store ptr %2, ptr %7, align 8, !tbaa !79
  call void @llvm.lifetime.start.p0(i64 4, ptr %8) #8
  br label %13

13:                                               ; preds = %3
  call void @llvm.lifetime.start.p0(i64 4, ptr %9) #8
  br label %14

14:                                               ; preds = %13
  %15 = load ptr, ptr %5, align 8, !tbaa !4
  %16 = load ptr, ptr %6, align 8, !tbaa !62
  %17 = call i32 @ff_cbs_read_unsigned(ptr noundef %15, ptr noundef %16, i32 noundef 8, ptr noundef @.str.36, ptr noundef null, ptr noundef %9, i32 noundef 73, i32 noundef 73)
  store i32 %17, ptr %8, align 4, !tbaa !11
  %18 = load i32, ptr %8, align 4, !tbaa !11
  %19 = icmp slt i32 %18, 0
  br i1 %19, label %20, label %22

20:                                               ; preds = %14
  %21 = load i32, ptr %8, align 4, !tbaa !11
  store i32 %21, ptr %4, align 4
  store i32 1, ptr %10, align 4
  br label %25

22:                                               ; preds = %14
  br label %23

23:                                               ; preds = %22
  br label %24

24:                                               ; preds = %23
  store i32 0, ptr %10, align 4
  br label %25

25:                                               ; preds = %24, %20
  call void @llvm.lifetime.end.p0(i64 4, ptr %9) #8
  %26 = load i32, ptr %10, align 4
  switch i32 %26, label %64 [
    i32 0, label %27
  ]

27:                                               ; preds = %25
  br label %28

28:                                               ; preds = %27
  br label %29

29:                                               ; preds = %28
  br label %30

30:                                               ; preds = %29
  call void @llvm.lifetime.start.p0(i64 4, ptr %11) #8
  br label %31

31:                                               ; preds = %30
  %32 = load ptr, ptr %5, align 8, !tbaa !4
  %33 = load ptr, ptr %6, align 8, !tbaa !62
  %34 = call i32 @ff_cbs_read_unsigned(ptr noundef %32, ptr noundef %33, i32 noundef 8, ptr noundef @.str.37, ptr noundef null, ptr noundef %11, i32 noundef 131, i32 noundef 131)
  store i32 %34, ptr %8, align 4, !tbaa !11
  %35 = load i32, ptr %8, align 4, !tbaa !11
  %36 = icmp slt i32 %35, 0
  br i1 %36, label %37, label %39

37:                                               ; preds = %31
  %38 = load i32, ptr %8, align 4, !tbaa !11
  store i32 %38, ptr %4, align 4
  store i32 1, ptr %10, align 4
  br label %42

39:                                               ; preds = %31
  br label %40

40:                                               ; preds = %39
  br label %41

41:                                               ; preds = %40
  store i32 0, ptr %10, align 4
  br label %42

42:                                               ; preds = %41, %37
  call void @llvm.lifetime.end.p0(i64 4, ptr %11) #8
  %43 = load i32, ptr %10, align 4
  switch i32 %43, label %64 [
    i32 0, label %44
  ]

44:                                               ; preds = %42
  br label %45

45:                                               ; preds = %44
  br label %46

46:                                               ; preds = %45
  br label %47

47:                                               ; preds = %46
  call void @llvm.lifetime.start.p0(i64 4, ptr %12) #8
  br label %48

48:                                               ; preds = %47
  %49 = load ptr, ptr %5, align 8, !tbaa !4
  %50 = load ptr, ptr %6, align 8, !tbaa !62
  %51 = call i32 @ff_cbs_read_unsigned(ptr noundef %49, ptr noundef %50, i32 noundef 8, ptr noundef @.str.38, ptr noundef null, ptr noundef %12, i32 noundef 66, i32 noundef 66)
  store i32 %51, ptr %8, align 4, !tbaa !11
  %52 = load i32, ptr %8, align 4, !tbaa !11
  %53 = icmp slt i32 %52, 0
  br i1 %53, label %54, label %56

54:                                               ; preds = %48
  %55 = load i32, ptr %8, align 4, !tbaa !11
  store i32 %55, ptr %4, align 4
  store i32 1, ptr %10, align 4
  br label %59

56:                                               ; preds = %48
  br label %57

57:                                               ; preds = %56
  br label %58

58:                                               ; preds = %57
  store i32 0, ptr %10, align 4
  br label %59

59:                                               ; preds = %58, %54
  call void @llvm.lifetime.end.p0(i64 4, ptr %12) #8
  %60 = load i32, ptr %10, align 4
  switch i32 %60, label %64 [
    i32 0, label %61
  ]

61:                                               ; preds = %59
  br label %62

62:                                               ; preds = %61
  br label %63

63:                                               ; preds = %62
  store i32 0, ptr %4, align 4
  store i32 1, ptr %10, align 4
  br label %64

64:                                               ; preds = %63, %59, %42, %25
  call void @llvm.lifetime.end.p0(i64 4, ptr %8) #8
  %65 = load i32, ptr %4, align 4
  ret i32 %65
}