; Function Attrs: nounwind uwtable
define internal fastcc range(i32 -2147483648, 1) i32 @cbs_vp9_read_frame_sync_code(ptr noundef %0, ptr noundef nonnull %1) unnamed_addr #0 {
  %3 = alloca i32, align 4
  %4 = alloca i32, align 4
  %5 = alloca i32, align 4
  call void @llvm.lifetime.start.p0(i64 4, ptr nonnull %3) #8
  %6 = call i32 @ff_cbs_read_unsigned(ptr noundef %0, ptr noundef nonnull %1, i32 noundef 8, ptr noundef nonnull @.str.36, ptr noundef null, ptr noundef nonnull %3, i32 noundef 73, i32 noundef 73) #8
  %7 = icmp sgt i32 %6, -1
  call void @llvm.lifetime.end.p0(i64 4, ptr nonnull %3) #8
  br i1 %7, label %8, label %13

8:                                                ; preds = %2
  call void @llvm.lifetime.start.p0(i64 4, ptr nonnull %4) #8
  %9 = call i32 @ff_cbs_read_unsigned(ptr noundef %0, ptr noundef nonnull %1, i32 noundef 8, ptr noundef nonnull @.str.37, ptr noundef null, ptr noundef nonnull %4, i32 noundef 131, i32 noundef 131) #8
  %10 = icmp sgt i32 %9, -1
  call void @llvm.lifetime.end.p0(i64 4, ptr nonnull %4) #8
  br i1 %10, label %11, label %13

11:                                               ; preds = %8
  call void @llvm.lifetime.start.p0(i64 4, ptr nonnull %5) #8
  %12 = call i32 @ff_cbs_read_unsigned(ptr noundef %0, ptr noundef nonnull %1, i32 noundef 8, ptr noundef nonnull @.str.38, ptr noundef null, ptr noundef nonnull %5, i32 noundef 66, i32 noundef 66) #8
  call void @llvm.lifetime.end.p0(i64 4, ptr nonnull %5) #8
  %spec.select = call i32 @llvm.smin.i32(i32 %12, i32 0)
  br label %13

13:                                               ; preds = %11, %8, %2
  %.118 = phi i32 [ %9, %8 ], [ %6, %2 ], [ %spec.select, %11 ]
  ret i32 %.118
}